target datalayout = "e-m:e-p270:32:32-p271:32:32-p272:64:64-i64:64-i128:128-f80:128-n8:16:32:64-S128"
target triple = "x86_64-pc-linux-gnu"

%struct.archive_read = type { %struct.archive, ptr, i32, i64, i64, %struct.archive_read_client, [16 x %struct.archive_read_filter_bidder], ptr, i32, i64, i32, i32, [16 x %struct.archive_format_descriptor], ptr, ptr, ptr, %struct.anon }
%struct.archive = type { i32, i32, ptr, i32, ptr, i32, i32, ptr, %struct.archive_string, ptr, i32, i32, ptr, ptr, i64, i64, i64, i8, i64 }
%struct.archive_string = type { ptr, i64, i64 }
%struct.archive_read_client = type { ptr, ptr, ptr, ptr, ptr, ptr, i32, i32, i64, ptr }
%struct.archive_read_filter_bidder = type { ptr, ptr, ptr }
%struct.archive_format_descriptor = type { ptr, ptr, ptr, ptr, ptr, ptr, ptr, ptr, ptr, ptr, ptr }
%struct.anon = type { ptr, ptr, i32, ptr, ptr }
%struct.cpio = type { i32, ptr, ptr, i64, i64, i64, i64, ptr, ptr, i32, i32 }

@.str.19 = private unnamed_addr constant [10 x i8] c"compat-2x\00", align 1
@.str.20 = private unnamed_addr constant [11 x i8] c"hdrcharset\00", align 1
@.str.21 = private unnamed_addr constant [51 x i8] c"cpio: hdrcharset option needs a character-set name\00", align 1
@.str.22 = private unnamed_addr constant [4 x i8] c"pwb\00", align 1

; Function Attrs: nounwind uwtable
define internal i32 @archive_read_format_cpio_options(ptr noundef %0, ptr noundef %1, ptr noundef %2) #0 {
  %4 = alloca i32, align 4
  %5 = alloca ptr, align 8
  %6 = alloca ptr, align 8
  %7 = alloca ptr, align 8
  %8 = alloca ptr, align 8
  %9 = alloca i32, align 4
  %10 = alloca i32, align 4
  store ptr %0, ptr %5, align 8, !tbaa !9
  store ptr %1, ptr %6, align 8, !tbaa !37
  store ptr %2, ptr %7, align 8, !tbaa !37
  call void @llvm.lifetime.start.p0(i64 8, ptr %8) #8
  call void @llvm.lifetime.start.p0(i64 4, ptr %9) #8
  store i32 -25, ptr %9, align 4, !tbaa !11
  %11 = load ptr, ptr %5, align 8, !tbaa !9
  %12 = getelementptr inbounds nuw %struct.archive_read, ptr %11, i32 0, i32 13
  %13 = load ptr, ptr %12, align 8, !tbaa !20
  %14 = getelementptr inbounds nuw %struct.archive_format_descriptor, ptr %13, i32 0, i32 0
  %15 = load ptr, ptr %14, align 8, !tbaa !35
  store ptr %15, ptr %8, align 8, !tbaa !13
  %16 = load ptr, ptr %6, align 8, !tbaa !37
  %17 = call i32 @strcmp(ptr noundef %16, ptr noundef @.str.19) #10
  %18 = icmp eq i32 %17, 0
  br i1 %18, label %19, label %25

19:                                               ; preds = %3
  %20 = load ptr, ptr %7, align 8, !tbaa !37
  %21 = icmp ne ptr %20, null
  %22 = select i1 %21, i32 1, i32 0
  %23 = load ptr, ptr %8, align 8, !tbaa !13
  %24 = getelementptr inbounds nuw %struct.cpio, ptr %23, i32 0, i32 9
  store i32 %22, ptr %24, align 8, !tbaa !40
  store i32 0, ptr %4, align 4
  store i32 1, ptr %10, align 4
  br label %77

25:                                               ; preds = %3
  %26 = load ptr, ptr %6, align 8, !tbaa !37
  %27 = call i32 @strcmp(ptr noundef %26, ptr noundef @.str.20) #10
  %28 = icmp eq i32 %27, 0
  br i1 %28, label %29, label %57

29:                                               ; preds = %25
  %30 = load ptr, ptr %7, align 8, !tbaa !37
  %31 = icmp eq ptr %30, null
  br i1 %31, label %38, label %32

32:                                               ; preds = %29
  %33 = load ptr, ptr %7, align 8, !tbaa !37
  %34 = getelementptr inbounds i8, ptr %33, i64 0
  %35 = load i8, ptr %34, align 1, !tbaa !39
  %36 = sext i8 %35 to i32
  %37 = icmp eq i32 %36, 0
  br i1 %37, label %38, label %41

38:                                               ; preds = %32, %29
  %39 = load ptr, ptr %5, align 8, !tbaa !9
  %40 = getelementptr inbounds nuw %struct.archive_read, ptr %39, i32 0, i32 0
  call void (ptr, i32, ptr, ...) @archive_set_error(ptr noundef %40, i32 noundef -1, ptr noundef @.str.21)
  br label %55

41:                                               ; preds = %32
  %42 = load ptr, ptr %5, align 8, !tbaa !9
  %43 = getelementptr inbounds nuw %struct.archive_read, ptr %42, i32 0, i32 0
  %44 = load ptr, ptr %7, align 8, !tbaa !37
  %45 = call ptr @archive_string_conversion_from_charset(ptr noundef %43, ptr noundef %44, i32 noundef 0)
  %46 = load ptr, ptr %8, align 8, !tbaa !13
  %47 = getelementptr inbounds nuw %struct.cpio, ptr %46, i32 0, i32 7
  store ptr %45, ptr %47, align 8, !tbaa !41
  %48 = load ptr, ptr %8, align 8, !tbaa !13
  %49 = getelementptr inbounds nuw %struct.cpio, ptr %48, i32 0, i32 7
  %50 = load ptr, ptr %49, align 8, !tbaa !41
  %51 = icmp ne ptr %50, null
  br i1 %51, label %52, label %53

52:                                               ; preds = %41
  store i32 0, ptr %9, align 4, !tbaa !11
  br label %54

53:                                               ; preds = %41
  store i32 -30, ptr %9, align 4, !tbaa !11
  br label %54

54:                                               ; preds = %53, %52
  br label %55

55:                                               ; preds = %54, %38
  %56 = load i32, ptr %9, align 4, !tbaa !11
  store i32 %56, ptr %4, align 4
  store i32 1, ptr %10, align 4
  br label %77

57:                                               ; preds = %25
  %58 = load ptr, ptr %6, align 8, !tbaa !37
  %59 = call i32 @strcmp(ptr noundef %58, ptr noundef @.str.22) #10
  %60 = icmp eq i32 %59, 0
  br i1 %60, label %61, label %74

61:                                               ; preds = %57
  %62 = load ptr, ptr %7, align 8, !tbaa !37
  %63 = icmp ne ptr %62, null
  br i1 %63, label %64, label %73

64:                                               ; preds = %61
  %65 = load ptr, ptr %7, align 8, !tbaa !37
  %66 = getelementptr inbounds i8, ptr %65, i64 0
  %67 = load i8, ptr %66, align 1, !tbaa !39
  %68 = sext i8 %67 to i32
  %69 = icmp ne i32 %68, 0
  br i1 %69, label %70, label %73

70:                                               ; preds = %64
  %71 = load ptr, ptr %8, align 8, !tbaa !13
  %72 = getelementptr inbounds nuw %struct.cpio, ptr %71, i32 0, i32 10
  store i32 1, ptr %72, align 4, !tbaa !42
  br label %73

73:                                               ; preds = %70, %64, %61
  store i32 0, ptr %4, align 4
  store i32 1, ptr %10, align 4
  br label %77

74:                                               ; preds = %57
  br label %75

75:                                               ; preds = %74
  br label %76

76:                                               ; preds = %75
  store i32 -20, ptr %4, align 4
  store i32 1, ptr %10, align 4
  br label %77

77:                                               ; preds = %76, %73, %55, %19
  call void @llvm.lifetime.end.p0(i64 4, ptr %9) #8
  call void @llvm.lifetime.end.p0(i64 8, ptr %8) #8
  %78 = load i32, ptr %4, align 4
  ret i32 %78
}