; Function Attrs: nounwind uwtable
define internal range(i32 -30, 1) i32 @archive_read_format_cpio_options(ptr noundef %0, ptr noundef readonly captures(none) %1, ptr noundef %2) #0 {
  %4 = getelementptr inbounds nuw i8, ptr %0, i64 2072
  %5 = load ptr, ptr %4, align 8, !tbaa !13
  %6 = load ptr, ptr %5, align 8, !tbaa !28
  %7 = tail call i32 @strcmp(ptr noundef nonnull dereferenceable(1) %1, ptr noundef nonnull dereferenceable(10) @.str.19) #14
  %8 = icmp eq i32 %7, 0
  br i1 %8, label %9, label %12

9:                                                ; preds = %3
  %.not21 = icmp ne ptr %2, null
  %10 = zext i1 %.not21 to i32
  %11 = getelementptr inbounds nuw i8, ptr %6, i64 72
  store i32 %10, ptr %11, align 8, !tbaa !32
  br label %32

12:                                               ; preds = %3
  %13 = tail call i32 @strcmp(ptr noundef nonnull dereferenceable(1) %1, ptr noundef nonnull dereferenceable(11) @.str.20) #14
  %14 = icmp eq i32 %13, 0
  br i1 %14, label %15, label %24

15:                                               ; preds = %12
  %16 = icmp eq ptr %2, null
  br i1 %16, label %20, label %17

17:                                               ; preds = %15
  %18 = load i8, ptr %2, align 1, !tbaa !30
  %19 = icmp eq i8 %18, 0
  br i1 %19, label %20, label %21

20:                                               ; preds = %17, %15
  tail call void (ptr, i32, ptr, ...) @archive_set_error(ptr noundef nonnull %0, i32 noundef -1, ptr noundef nonnull @.str.21) #12
  br label %32

21:                                               ; preds = %17
  %22 = tail call ptr @archive_string_conversion_from_charset(ptr noundef nonnull %0, ptr noundef nonnull %2, i32 noundef 0) #12
  %23 = getelementptr inbounds nuw i8, ptr %6, i64 56
  store ptr %22, ptr %23, align 8, !tbaa !33
  %.not20 = icmp eq ptr %22, null
  %. = select i1 %.not20, i32 -30, i32 0
  br label %32

24:                                               ; preds = %12
  %25 = tail call i32 @strcmp(ptr noundef nonnull dereferenceable(1) %1, ptr noundef nonnull dereferenceable(4) @.str.22) #14
  %26 = icmp eq i32 %25, 0
  br i1 %26, label %27, label %32

27:                                               ; preds = %24
  %.not = icmp eq ptr %2, null
  br i1 %.not, label %32, label %28

28:                                               ; preds = %27
  %29 = load i8, ptr %2, align 1, !tbaa !30
  %.not19 = icmp eq i8 %29, 0
  br i1 %.not19, label %32, label %30

30:                                               ; preds = %28
  %31 = getelementptr inbounds nuw i8, ptr %6, i64 76
  store i32 1, ptr %31, align 4, !tbaa !34
  br label %32

32:                                               ; preds = %24, %27, %28, %30, %20, %21, %9
  %.017 = phi i32 [ 0, %9 ], [ -25, %20 ], [ %., %21 ], [ 0, %30 ], [ 0, %28 ], [ 0, %27 ], [ -20, %24 ]
  ret i32 %.017
}